target datalayout = "e-m:e-p270:32:32-p271:32:32-p272:64:64-i64:64-i128:128-f80:128-n8:16:32:64-S128"
target triple = "x86_64-pc-linux-gnu"

%struct.AVFormatContext = type { ptr, ptr, ptr, ptr, ptr, i32, i32, ptr, i32, ptr, i32, ptr, ptr, i64, i64, i64, i32, i32, i32, i64, i64, ptr, i32, i32, ptr, i32, i32, i32, i32, ptr, i64, i32, i32, %struct.AVIOInterruptCB, i32, i32, i32, i32, i64, i32, i32, i32, i32, i32, i32, i32, i32, i32, i32, i32, i32, i64, i32, i32, i32, i32, i32, ptr, ptr, ptr, ptr, i32, ptr, ptr, ptr, ptr, i32, ptr, ptr, i64, ptr, ptr, ptr, i64 }
%struct.AVIOInterruptCB = type { ptr, ptr }
%struct.AVPacket = type { ptr, i64, i64, ptr, i32, i32, i32, ptr, i32, i64, i64, ptr, ptr, %struct.AVRational }
%struct.AVRational = type { i32, i32 }

; Function Attrs: alwaysinline nounwind uwtable
define internal i64 @avio_tell(ptr noundef %0) #4 {
  %2 = alloca ptr, align 8
  store ptr %0, ptr %2, align 8, !tbaa !59
  %3 = load ptr, ptr %2, align 8, !tbaa !59
  %4 = call i64 @avio_seek(ptr noundef %3, i64 noundef 0, i32 noundef 1)
  ret i64 %4
}

; Function Attrs: nounwind uwtable
define internal i32 @aix_read_packet(ptr noundef %0, ptr noundef %1) #0 {
  %3 = alloca i32, align 4
  %4 = alloca ptr, align 8
  %5 = alloca ptr, align 8
  %6 = alloca i32, align 4
  %7 = alloca i32, align 4
  %8 = alloca i32, align 4
  %9 = alloca i32, align 4
  %10 = alloca i64, align 8
  %11 = alloca i32, align 4
  %12 = alloca i32, align 4
  %13 = alloca i32, align 4
  %14 = alloca i32, align 4
  store ptr %0, ptr %4, align 8, !tbaa !14
  store ptr %1, ptr %5, align 8, !tbaa !51
  call void @llvm.lifetime.start.p0(i64 4, ptr %6) #6
  call void @llvm.lifetime.start.p0(i64 4, ptr %7) #6
  call void @llvm.lifetime.start.p0(i64 4, ptr %8) #6
  call void @llvm.lifetime.start.p0(i64 4, ptr %9) #6
  call void @llvm.lifetime.start.p0(i64 8, ptr %10) #6
  call void @llvm.lifetime.start.p0(i64 4, ptr %11) #6
  call void @llvm.lifetime.start.p0(i64 4, ptr %12) #6
  call void @llvm.lifetime.start.p0(i64 4, ptr %13) #6
  %15 = load ptr, ptr %4, align 8, !tbaa !14
  %16 = getelementptr inbounds nuw %struct.AVFormatContext, ptr %15, i32 0, i32 4
  %17 = load ptr, ptr %16, align 8, !tbaa !17
  %18 = call i64 @avio_tell(ptr noundef %17)
  store i64 %18, ptr %10, align 8, !tbaa !53
  %19 = load ptr, ptr %4, align 8, !tbaa !14
  %20 = getelementptr inbounds nuw %struct.AVFormatContext, ptr %19, i32 0, i32 4
  %21 = load ptr, ptr %20, align 8, !tbaa !17
  %22 = call i32 @avio_feof(ptr noundef %21)
  %23 = icmp ne i32 %22, 0
  br i1 %23, label %24, label %25

24:                                               ; preds = %2
  store i32 -541478725, ptr %3, align 4
  store i32 1, ptr %14, align 4
  br label %153

25:                                               ; preds = %2
  %26 = load ptr, ptr %4, align 8, !tbaa !14
  %27 = getelementptr inbounds nuw %struct.AVFormatContext, ptr %26, i32 0, i32 4
  %28 = load ptr, ptr %27, align 8, !tbaa !17
  %29 = call i32 @avio_rl32(ptr noundef %28)
  store i32 %29, ptr %9, align 4, !tbaa !16
  %30 = load ptr, ptr %4, align 8, !tbaa !14
  %31 = getelementptr inbounds nuw %struct.AVFormatContext, ptr %30, i32 0, i32 4
  %32 = load ptr, ptr %31, align 8, !tbaa !17
  %33 = call i32 @avio_rb32(ptr noundef %32)
  store i32 %33, ptr %6, align 4, !tbaa !16
  %34 = load i32, ptr %9, align 4, !tbaa !16
  %35 = icmp eq i32 %34, 1163413825
  br i1 %35, label %36, label %87

36:                                               ; preds = %25
  %37 = load ptr, ptr %4, align 8, !tbaa !14
  %38 = getelementptr inbounds nuw %struct.AVFormatContext, ptr %37, i32 0, i32 4
  %39 = load ptr, ptr %38, align 8, !tbaa !17
  %40 = load i32, ptr %6, align 4, !tbaa !16
  %41 = zext i32 %40 to i64
  %42 = call i64 @avio_skip(ptr noundef %39, i64 noundef %41)
  store i32 0, ptr %13, align 4, !tbaa !16
  br label %43

43:                                               ; preds = %71, %36
  %44 = load i32, ptr %13, align 4, !tbaa !16
  %45 = load ptr, ptr %4, align 8, !tbaa !14
  %46 = getelementptr inbounds nuw %struct.AVFormatContext, ptr %45, i32 0, i32 6
  %47 = load i32, ptr %46, align 4, !tbaa !54
  %48 = icmp ult i32 %44, %47
  br i1 %48, label %49, label %74

49:                                               ; preds = %43
  %50 = load ptr, ptr %4, align 8, !tbaa !14
  %51 = getelementptr inbounds nuw %struct.AVFormatContext, ptr %50, i32 0, i32 4
  %52 = load ptr, ptr %51, align 8, !tbaa !17
  %53 = call i32 @avio_feof(ptr noundef %52)
  %54 = icmp ne i32 %53, 0
  br i1 %54, label %55, label %56

55:                                               ; preds = %49
  store i32 -541478725, ptr %3, align 4
  store i32 1, ptr %14, align 4
  br label %153

56:                                               ; preds = %49
  %57 = load ptr, ptr %4, align 8, !tbaa !14
  %58 = getelementptr inbounds nuw %struct.AVFormatContext, ptr %57, i32 0, i32 4
  %59 = load ptr, ptr %58, align 8, !tbaa !17
  %60 = call i32 @avio_rl32(ptr noundef %59)
  store i32 %60, ptr %9, align 4, !tbaa !16
  %61 = load ptr, ptr %4, align 8, !tbaa !14
  %62 = getelementptr inbounds nuw %struct.AVFormatContext, ptr %61, i32 0, i32 4
  %63 = load ptr, ptr %62, align 8, !tbaa !17
  %64 = call i32 @avio_rb32(ptr noundef %63)
  store i32 %64, ptr %6, align 4, !tbaa !16
  %65 = load ptr, ptr %4, align 8, !tbaa !14
  %66 = getelementptr inbounds nuw %struct.AVFormatContext, ptr %65, i32 0, i32 4
  %67 = load ptr, ptr %66, align 8, !tbaa !17
  %68 = load i32, ptr %6, align 4, !tbaa !16
  %69 = zext i32 %68 to i64
  %70 = call i64 @avio_skip(ptr noundef %67, i64 noundef %69)
  br label %71

71:                                               ; preds = %56
  %72 = load i32, ptr %13, align 4, !tbaa !16
  %73 = add nsw i32 %72, 1
  store i32 %73, ptr %13, align 4, !tbaa !16
  br label %43, !llvm.loop !55

74:                                               ; preds = %43
  %75 = load ptr, ptr %4, align 8, !tbaa !14
  %76 = getelementptr inbounds nuw %struct.AVFormatContext, ptr %75, i32 0, i32 4
  %77 = load ptr, ptr %76, align 8, !tbaa !17
  %78 = call i64 @avio_tell(ptr noundef %77)
  store i64 %78, ptr %10, align 8, !tbaa !53
  %79 = load ptr, ptr %4, align 8, !tbaa !14
  %80 = getelementptr inbounds nuw %struct.AVFormatContext, ptr %79, i32 0, i32 4
  %81 = load ptr, ptr %80, align 8, !tbaa !17
  %82 = call i32 @avio_rl32(ptr noundef %81)
  store i32 %82, ptr %9, align 4, !tbaa !16
  %83 = load ptr, ptr %4, align 8, !tbaa !14
  %84 = getelementptr inbounds nuw %struct.AVFormatContext, ptr %83, i32 0, i32 4
  %85 = load ptr, ptr %84, align 8, !tbaa !17
  %86 = call i32 @avio_rb32(ptr noundef %85)
  store i32 %86, ptr %6, align 4, !tbaa !16
  br label %87

87:                                               ; preds = %74, %25
  %88 = load i32, ptr %9, align 4, !tbaa !16
  %89 = icmp ne i32 %88, 1347963201
  br i1 %89, label %90, label %91

90:                                               ; preds = %87
  store i32 -1094995529, ptr %3, align 4
  store i32 1, ptr %14, align 4
  br label %153

91:                                               ; preds = %87
  %92 = load i32, ptr %6, align 4, !tbaa !16
  %93 = icmp ule i32 %92, 8
  br i1 %93, label %94, label %95

94:                                               ; preds = %91
  store i32 -1094995529, ptr %3, align 4
  store i32 1, ptr %14, align 4
  br label %153

95:                                               ; preds = %91
  %96 = load ptr, ptr %4, align 8, !tbaa !14
  %97 = getelementptr inbounds nuw %struct.AVFormatContext, ptr %96, i32 0, i32 4
  %98 = load ptr, ptr %97, align 8, !tbaa !17
  %99 = call i32 @avio_r8(ptr noundef %98)
  store i32 %99, ptr %7, align 4, !tbaa !16
  %100 = load ptr, ptr %4, align 8, !tbaa !14
  %101 = getelementptr inbounds nuw %struct.AVFormatContext, ptr %100, i32 0, i32 4
  %102 = load ptr, ptr %101, align 8, !tbaa !17
  %103 = call i32 @avio_r8(ptr noundef %102)
  %104 = load ptr, ptr %4, align 8, !tbaa !14
  %105 = getelementptr inbounds nuw %struct.AVFormatContext, ptr %104, i32 0, i32 6
  %106 = load i32, ptr %105, align 4, !tbaa !54
  %107 = icmp ne i32 %103, %106
  br i1 %107, label %114, label %108

108:                                              ; preds = %95
  %109 = load i32, ptr %7, align 4, !tbaa !16
  %110 = load ptr, ptr %4, align 8, !tbaa !14
  %111 = getelementptr inbounds nuw %struct.AVFormatContext, ptr %110, i32 0, i32 6
  %112 = load i32, ptr %111, align 4, !tbaa !54
  %113 = icmp uge i32 %109, %112
  br i1 %113, label %114, label %115

114:                                              ; preds = %108, %95
  store i32 -1094995529, ptr %3, align 4
  store i32 1, ptr %14, align 4
  br label %153

115:                                              ; preds = %108
  %116 = load ptr, ptr %4, align 8, !tbaa !14
  %117 = getelementptr inbounds nuw %struct.AVFormatContext, ptr %116, i32 0, i32 4
  %118 = load ptr, ptr %117, align 8, !tbaa !17
  %119 = call i32 @avio_rb16(ptr noundef %118)
  store i32 %119, ptr %8, align 4, !tbaa !16
  %120 = load ptr, ptr %4, align 8, !tbaa !14
  %121 = getelementptr inbounds nuw %struct.AVFormatContext, ptr %120, i32 0, i32 4
  %122 = load ptr, ptr %121, align 8, !tbaa !17
  %123 = call i32 @avio_rb32(ptr noundef %122)
  store i32 %123, ptr %11, align 4, !tbaa !16
  %124 = load i32, ptr %11, align 4, !tbaa !16
  %125 = icmp slt i32 %124, 0
  br i1 %125, label %126, label %134

126:                                              ; preds = %115
  %127 = load ptr, ptr %4, align 8, !tbaa !14
  %128 = getelementptr inbounds nuw %struct.AVFormatContext, ptr %127, i32 0, i32 4
  %129 = load ptr, ptr %128, align 8, !tbaa !17
  %130 = load i32, ptr %6, align 4, !tbaa !16
  %131 = sub i32 %130, 8
  %132 = zext i32 %131 to i64
  %133 = call i64 @avio_skip(ptr noundef %129, i64 noundef %132)
  store i32 0, ptr %3, align 4
  store i32 1, ptr %14, align 4
  br label %153

134:                                              ; preds = %115
  %135 = load ptr, ptr %4, align 8, !tbaa !14
  %136 = getelementptr inbounds nuw %struct.AVFormatContext, ptr %135, i32 0, i32 4
  %137 = load ptr, ptr %136, align 8, !tbaa !17
  %138 = load ptr, ptr %5, align 8, !tbaa !51
  %139 = load i32, ptr %6, align 4, !tbaa !16
  %140 = sub i32 %139, 8
  %141 = call i32 @av_get_packet(ptr noundef %137, ptr noundef %138, i32 noundef %140)
  store i32 %141, ptr %12, align 4, !tbaa !16
  %142 = load i32, ptr %7, align 4, !tbaa !16
  %143 = load ptr, ptr %5, align 8, !tbaa !51
  %144 = getelementptr inbounds nuw %struct.AVPacket, ptr %143, i32 0, i32 5
  store i32 %142, ptr %144, align 4, !tbaa !56
  %145 = load i32, ptr %8, align 4, !tbaa !16
  %146 = zext i32 %145 to i64
  %147 = load ptr, ptr %5, align 8, !tbaa !51
  %148 = getelementptr inbounds nuw %struct.AVPacket, ptr %147, i32 0, i32 9
  store i64 %146, ptr %148, align 8, !tbaa !57
  %149 = load i64, ptr %10, align 8, !tbaa !53
  %150 = load ptr, ptr %5, align 8, !tbaa !51
  %151 = getelementptr inbounds nuw %struct.AVPacket, ptr %150, i32 0, i32 10
  store i64 %149, ptr %151, align 8, !tbaa !58
  %152 = load i32, ptr %12, align 4, !tbaa !16
  store i32 %152, ptr %3, align 4
  store i32 1, ptr %14, align 4
  br label %153

153:                                              ; preds = %134, %126, %114, %94, %90, %55, %24
  call void @llvm.lifetime.end.p0(i64 4, ptr %13) #6
  call void @llvm.lifetime.end.p0(i64 4, ptr %12) #6
  call void @llvm.lifetime.end.p0(i64 4, ptr %11) #6
  call void @llvm.lifetime.end.p0(i64 8, ptr %10) #6
  call void @llvm.lifetime.end.p0(i64 4, ptr %9) #6
  call void @llvm.lifetime.end.p0(i64 4, ptr %8) #6
  call void @llvm.lifetime.end.p0(i64 4, ptr %7) #6
  call void @llvm.lifetime.end.p0(i64 4, ptr %6) #6
  %154 = load i32, ptr %3, align 4
  ret i32 %154
}