; Function Attrs: nounwind uwtable
define internal i32 @aix_read_packet(ptr noundef readonly captures(none) %0, ptr noundef %1) #1 {
  %3 = getelementptr inbounds nuw i8, ptr %0, i64 32
  %4 = load ptr, ptr %3, align 8, !tbaa !12
  %5 = tail call i64 @avio_seek(ptr noundef %4, i64 noundef 0, i32 noundef 1) #3
  %6 = load ptr, ptr %3, align 8, !tbaa !12
  %7 = tail call i32 @avio_feof(ptr noundef %6) #3
  %.not = icmp eq i32 %7, 0
  br i1 %.not, label %8, label %.loopexit

8:                                                ; preds = %2
  %9 = load ptr, ptr %3, align 8, !tbaa !12
  %10 = tail call i32 @avio_rl32(ptr noundef %9) #3
  %11 = load ptr, ptr %3, align 8, !tbaa !12
  %12 = tail call i32 @avio_rb32(ptr noundef %11) #3
  %13 = icmp eq i32 %10, 1163413825
  br i1 %13, label %14, label %39

14:                                               ; preds = %8
  %15 = load ptr, ptr %3, align 8, !tbaa !12
  %16 = zext i32 %12 to i64
  %17 = tail call i64 @avio_skip(ptr noundef %15, i64 noundef %16) #3
  %18 = getelementptr inbounds nuw i8, ptr %0, i64 44
  %19 = load i32, ptr %18, align 4, !tbaa !46
  %.not53 = icmp eq i32 %19, 0
  br i1 %.not53, label %._crit_edge, label %.lr.ph

.lr.ph:                                           ; preds = %14, %22
  %.052 = phi i32 [ %30, %22 ], [ 0, %14 ]
  %20 = load ptr, ptr %3, align 8, !tbaa !12
  %21 = tail call i32 @avio_feof(ptr noundef %20) #3
  %.not50 = icmp eq i32 %21, 0
  br i1 %.not50, label %22, label %.loopexit

22:                                               ; preds = %.lr.ph
  %23 = load ptr, ptr %3, align 8, !tbaa !12
  %24 = tail call i32 @avio_rl32(ptr noundef %23) #3
  %25 = load ptr, ptr %3, align 8, !tbaa !12
  %26 = tail call i32 @avio_rb32(ptr noundef %25) #3
  %27 = load ptr, ptr %3, align 8, !tbaa !12
  %28 = zext i32 %26 to i64
  %29 = tail call i64 @avio_skip(ptr noundef %27, i64 noundef %28) #3
  %30 = add nuw nsw i32 %.052, 1
  %31 = load i32, ptr %18, align 4, !tbaa !46
  %32 = icmp ult i32 %30, %31
  br i1 %32, label %.lr.ph, label %._crit_edge, !llvm.loop !47

._crit_edge:                                      ; preds = %22, %14
  %33 = load ptr, ptr %3, align 8, !tbaa !12
  %34 = tail call i64 @avio_seek(ptr noundef %33, i64 noundef 0, i32 noundef 1) #3
  %35 = load ptr, ptr %3, align 8, !tbaa !12
  %36 = tail call i32 @avio_rl32(ptr noundef %35) #3
  %37 = load ptr, ptr %3, align 8, !tbaa !12
  %38 = tail call i32 @avio_rb32(ptr noundef %37) #3
  br label %39

39:                                               ; preds = %._crit_edge, %8
  %.043 = phi i32 [ %36, %._crit_edge ], [ %10, %8 ]
  %.042 = phi i64 [ %34, %._crit_edge ], [ %5, %8 ]
  %.041 = phi i32 [ %38, %._crit_edge ], [ %12, %8 ]
  %.not47 = icmp ne i32 %.043, 1347963201
  %40 = icmp ult i32 %.041, 9
  %or.cond51 = select i1 %.not47, i1 true, i1 %40
  br i1 %or.cond51, label %.loopexit, label %41

41:                                               ; preds = %39
  %42 = load ptr, ptr %3, align 8, !tbaa !12
  %43 = tail call i32 @avio_r8(ptr noundef %42) #3
  %44 = load ptr, ptr %3, align 8, !tbaa !12
  %45 = tail call i32 @avio_r8(ptr noundef %44) #3
  %46 = getelementptr inbounds nuw i8, ptr %0, i64 44
  %47 = load i32, ptr %46, align 4, !tbaa !46
  %.not48 = icmp eq i32 %45, %47
  %.not49 = icmp ult i32 %43, %47
  %or.cond = select i1 %.not48, i1 %.not49, i1 false
  br i1 %or.cond, label %48, label %.loopexit

48:                                               ; preds = %41
  %49 = load ptr, ptr %3, align 8, !tbaa !12
  %50 = tail call i32 @avio_rb16(ptr noundef %49) #3
  %51 = load ptr, ptr %3, align 8, !tbaa !12
  %52 = tail call i32 @avio_rb32(ptr noundef %51) #3
  %53 = icmp slt i32 %52, 0
  %54 = load ptr, ptr %3, align 8, !tbaa !12
  %55 = add i32 %.041, -8
  br i1 %53, label %56, label %59

56:                                               ; preds = %48
  %57 = zext i32 %55 to i64
  %58 = tail call i64 @avio_skip(ptr noundef %54, i64 noundef %57) #3
  br label %.loopexit

59:                                               ; preds = %48
  %60 = tail call i32 @av_get_packet(ptr noundef %54, ptr noundef %1, i32 noundef %55) #3
  %61 = getelementptr inbounds nuw i8, ptr %1, i64 36
  store i32 %43, ptr %61, align 4, !tbaa !48
  %62 = zext i32 %50 to i64
  %63 = getelementptr inbounds nuw i8, ptr %1, i64 64
  store i64 %62, ptr %63, align 8, !tbaa !49
  %64 = getelementptr inbounds nuw i8, ptr %1, i64 72
  store i64 %.042, ptr %64, align 8, !tbaa !50
  br label %.loopexit

.loopexit:                                        ; preds = %.lr.ph, %41, %39, %2, %59, %56
  %.040 = phi i32 [ 0, %56 ], [ %60, %59 ], [ -541478725, %2 ], [ -1094995529, %39 ], [ -1094995529, %41 ], [ -541478725, %.lr.ph ]
  ret i32 %.040
}